target datalayout = "e-m:e-p270:32:32-p271:32:32-p272:64:64-i64:64-i128:128-f80:128-n8:16:32:64-S128"
target triple = "x86_64-pc-linux-gnu"

; Function Attrs: mustprogress nounwind uwtable
define noundef i32 @_ZN5boost7archive6detail18utf8_codecvt_facet15get_octet_countEh(i8 noundef zeroext %0) #3 align 2 {
  %2 = alloca i32, align 4
  %3 = alloca i8, align 1
  store i8 %0, ptr %3, align 1, !tbaa !11
  %4 = load i8, ptr %3, align 1, !tbaa !11
  %5 = zext i8 %4 to i32
  %6 = icmp sle i32 %5, 127
  br i1 %6, label %7, label %8

7:                                                ; preds = %1
  store i32 1, ptr %2, align 4
  br label %45

8:                                                ; preds = %1
  %9 = load i8, ptr %3, align 1, !tbaa !11
  %10 = zext i8 %9 to i32
  %11 = icmp sle i32 192, %10
  br i1 %11, label %12, label %17

12:                                               ; preds = %8
  %13 = load i8, ptr %3, align 1, !tbaa !11
  %14 = zext i8 %13 to i32
  %15 = icmp sle i32 %14, 223
  br i1 %15, label %16, label %17

16:                                               ; preds = %12
  store i32 2, ptr %2, align 4
  br label %45

17:                                               ; preds = %12, %8
  %18 = load i8, ptr %3, align 1, !tbaa !11
  %19 = zext i8 %18 to i32
  %20 = icmp sle i32 224, %19
  br i1 %20, label %21, label %26

21:                                               ; preds = %17
  %22 = load i8, ptr %3, align 1, !tbaa !11
  %23 = zext i8 %22 to i32
  %24 = icmp sle i32 %23, 239
  br i1 %24, label %25, label %26

25:                                               ; preds = %21
  store i32 3, ptr %2, align 4
  br label %45

26:                                               ; preds = %21, %17
  %27 = load i8, ptr %3, align 1, !tbaa !11
  %28 = zext i8 %27 to i32
  %29 = icmp sle i32 240, %28
  br i1 %29, label %30, label %35

30:                                               ; preds = %26
  %31 = load i8, ptr %3, align 1, !tbaa !11
  %32 = zext i8 %31 to i32
  %33 = icmp sle i32 %32, 247
  br i1 %33, label %34, label %35

34:                                               ; preds = %30
  store i32 4, ptr %2, align 4
  br label %45

35:                                               ; preds = %30, %26
  %36 = load i8, ptr %3, align 1, !tbaa !11
  %37 = zext i8 %36 to i32
  %38 = icmp sle i32 248, %37
  br i1 %38, label %39, label %44

39:                                               ; preds = %35
  %40 = load i8, ptr %3, align 1, !tbaa !11
  %41 = zext i8 %40 to i32
  %42 = icmp sle i32 %41, 251
  br i1 %42, label %43, label %44

43:                                               ; preds = %39
  store i32 5, ptr %2, align 4
  br label %45

44:                                               ; preds = %39, %35
  store i32 6, ptr %2, align 4
  br label %45

45:                                               ; preds = %44, %43, %34, %25, %16, %7
  %46 = load i32, ptr %2, align 4
  ret i32 %46
}