; Function Attrs: mustprogress nofree norecurse nosync nounwind willreturn memory(none) uwtable
define noundef range(i32 1, 7) i32 @_ZN5boost7archive6detail18utf8_codecvt_facet15get_octet_countEh(i8 noundef zeroext %0) local_unnamed_addr #6 align 2 {
  %2 = icmp sgt i8 %0, -1
  br i1 %2, label %11, label %3

3:                                                ; preds = %1
  %4 = and i8 %0, -32
  %or.cond = icmp eq i8 %4, -64
  br i1 %or.cond, label %11, label %5

5:                                                ; preds = %3
  %6 = and i8 %0, -16
  %or.cond5 = icmp eq i8 %6, -32
  br i1 %or.cond5, label %11, label %7

7:                                                ; preds = %5
  %8 = and i8 %0, -8
  %or.cond8 = icmp eq i8 %8, -16
  br i1 %or.cond8, label %11, label %9

9:                                                ; preds = %7
  %10 = and i8 %0, -4
  %or.cond11 = icmp eq i8 %10, -8
  %. = select i1 %or.cond11, i32 5, i32 6
  br label %11

11:                                               ; preds = %9, %7, %5, %3, %1
  %.0 = phi i32 [ 1, %1 ], [ 2, %3 ], [ 3, %5 ], [ 4, %7 ], [ %., %9 ]
  ret i32 %.0
}